	.text
	.intel_syntax noprefix
	.file	"main.106357af-cgu.0"
	.section	.text._ZN3std10sys_common9backtrace28__rust_begin_short_backtrace17h0fc32864dd56e7d4E,"ax",@progbits
	.p2align	4, 0x90
	.type	_ZN3std10sys_common9backtrace28__rust_begin_short_backtrace17h0fc32864dd56e7d4E,@function
_ZN3std10sys_common9backtrace28__rust_begin_short_backtrace17h0fc32864dd56e7d4E:
	.cfi_startproc
	push	rax
	.cfi_def_cfa_offset 16
	call	rdi
	#APP
	#NO_APP
	pop	rax
	.cfi_def_cfa_offset 8
	ret
.Lfunc_end0:
	.size	_ZN3std10sys_common9backtrace28__rust_begin_short_backtrace17h0fc32864dd56e7d4E, .Lfunc_end0-_ZN3std10sys_common9backtrace28__rust_begin_short_backtrace17h0fc32864dd56e7d4E
	.cfi_endproc

	.section	.text._ZN3std2rt10lang_start17he02f89a3894b5d5eE,"ax",@progbits
	.hidden	_ZN3std2rt10lang_start17he02f89a3894b5d5eE
	.globl	_ZN3std2rt10lang_start17he02f89a3894b5d5eE
	.p2align	4, 0x90
	.type	_ZN3std2rt10lang_start17he02f89a3894b5d5eE,@function
_ZN3std2rt10lang_start17he02f89a3894b5d5eE:
	.cfi_startproc
	push	rax
	.cfi_def_cfa_offset 16
	mov	r8d, ecx
	mov	rcx, rdx
	mov	rdx, rsi
	mov	qword ptr [rsp], rdi
	lea	rsi, [rip + .L__unnamed_1]
	mov	rdi, rsp
	call	qword ptr [rip + _ZN3std2rt19lang_start_internal17hd16e6ff7bf05a444E@GOTPCREL]
	pop	rcx
	.cfi_def_cfa_offset 8
	ret
.Lfunc_end1:
	.size	_ZN3std2rt10lang_start17he02f89a3894b5d5eE, .Lfunc_end1-_ZN3std2rt10lang_start17he02f89a3894b5d5eE
	.cfi_endproc

	.section	".text._ZN3std2rt10lang_start28_$u7b$$u7b$closure$u7d$$u7d$17h07bf5801f126fb76E","ax",@progbits
	.p2align	4, 0x90
	.type	_ZN3std2rt10lang_start28_$u7b$$u7b$closure$u7d$$u7d$17h07bf5801f126fb76E,@function
_ZN3std2rt10lang_start28_$u7b$$u7b$closure$u7d$$u7d$17h07bf5801f126fb76E:
	.cfi_startproc
	push	rax
	.cfi_def_cfa_offset 16
	mov	rdi, qword ptr [rdi]
	call	_ZN3std10sys_common9backtrace28__rust_begin_short_backtrace17h0fc32864dd56e7d4E
	xor	eax, eax
	pop	rcx
	.cfi_def_cfa_offset 8
	ret
.Lfunc_end2:
	.size	_ZN3std2rt10lang_start28_$u7b$$u7b$closure$u7d$$u7d$17h07bf5801f126fb76E, .Lfunc_end2-_ZN3std2rt10lang_start28_$u7b$$u7b$closure$u7d$$u7d$17h07bf5801f126fb76E
	.cfi_endproc

	.section	".text._ZN4core3ops8function6FnOnce40call_once$u7b$$u7b$vtable.shim$u7d$$u7d$17hb2c101b91165db55E","ax",@progbits
	.p2align	4, 0x90
	.type	_ZN4core3ops8function6FnOnce40call_once$u7b$$u7b$vtable.shim$u7d$$u7d$17hb2c101b91165db55E,@function
_ZN4core3ops8function6FnOnce40call_once$u7b$$u7b$vtable.shim$u7d$$u7d$17hb2c101b91165db55E:
	.cfi_startproc
	push	rax
	.cfi_def_cfa_offset 16
	mov	rdi, qword ptr [rdi]
	call	_ZN3std10sys_common9backtrace28__rust_begin_short_backtrace17h0fc32864dd56e7d4E
	xor	eax, eax
	pop	rcx
	.cfi_def_cfa_offset 8
	ret
.Lfunc_end3:
	.size	_ZN4core3ops8function6FnOnce40call_once$u7b$$u7b$vtable.shim$u7d$$u7d$17hb2c101b91165db55E, .Lfunc_end3-_ZN4core3ops8function6FnOnce40call_once$u7b$$u7b$vtable.shim$u7d$$u7d$17hb2c101b91165db55E
	.cfi_endproc

	.section	".text._ZN4core3ptr85drop_in_place$LT$std..rt..lang_start$LT$$LP$$RP$$GT$..$u7b$$u7b$closure$u7d$$u7d$$GT$17h004fc24841fc0ef8E","ax",@progbits
	.p2align	4, 0x90
	.type	_ZN4core3ptr85drop_in_place$LT$std..rt..lang_start$LT$$LP$$RP$$GT$..$u7b$$u7b$closure$u7d$$u7d$$GT$17h004fc24841fc0ef8E,@function
_ZN4core3ptr85drop_in_place$LT$std..rt..lang_start$LT$$LP$$RP$$GT$..$u7b$$u7b$closure$u7d$$u7d$$GT$17h004fc24841fc0ef8E:
	.cfi_startproc
	ret
.Lfunc_end4:
	.size	_ZN4core3ptr85drop_in_place$LT$std..rt..lang_start$LT$$LP$$RP$$GT$..$u7b$$u7b$closure$u7d$$u7d$$GT$17h004fc24841fc0ef8E, .Lfunc_end4-_ZN4core3ptr85drop_in_place$LT$std..rt..lang_start$LT$$LP$$RP$$GT$..$u7b$$u7b$closure$u7d$$u7d$$GT$17h004fc24841fc0ef8E
	.cfi_endproc

	.section	.text._ZN4main4main17h2a68d4d833d7495aE,"ax",@progbits
	.p2align	4, 0x90
	.type	_ZN4main4main17h2a68d4d833d7495aE,@function
_ZN4main4main17h2a68d4d833d7495aE:
	.cfi_startproc
	push	rax
	.cfi_def_cfa_offset 16
	call	qword ptr [rip + flag@GOTPCREL]
	lea	rcx, [rip + _ZN39_$LT$main..Baz$u20$as$u20$main..Foo$GT$3foo17hcfedbebfa40e53f1E]
	lea	rdx, [rip + _ZN39_$LT$main..Bar$u20$as$u20$main..Foo$GT$3foo17he1ea0fced23730ddE]
	test	al, al
	cmovne	rdx, rcx
	lea	rdi, [rip + .L__unnamed_2]
	pop	rax
	.cfi_def_cfa_offset 8
	jmp	rdx
.Lfunc_end5:
	.size	_ZN4main4main17h2a68d4d833d7495aE, .Lfunc_end5-_ZN4main4main17h2a68d4d833d7495aE
	.cfi_endproc

	.section	".text._ZN39_$LT$main..Bar$u20$as$u20$main..Foo$GT$3foo17he1ea0fced23730ddE","ax",@progbits
	.p2align	4, 0x90
	.type	_ZN39_$LT$main..Bar$u20$as$u20$main..Foo$GT$3foo17he1ea0fced23730ddE,@function
_ZN39_$LT$main..Bar$u20$as$u20$main..Foo$GT$3foo17he1ea0fced23730ddE:
	.cfi_startproc
	sub	rsp, 56
	.cfi_def_cfa_offset 64
	lea	rax, [rip + .L__unnamed_3]
	mov	qword ptr [rsp + 24], rax
	mov	qword ptr [rsp + 32], 1
	mov	qword ptr [rsp + 8], 0
	lea	rax, [rip + .L__unnamed_2]
	mov	qword ptr [rsp + 40], rax
	mov	qword ptr [rsp + 48], 0
	lea	rdi, [rsp + 8]
	call	qword ptr [rip + _ZN3std2io5stdio6_print17he20294a7ec6321a5E@GOTPCREL]
	xor	eax, eax
	add	rsp, 56
	.cfi_def_cfa_offset 8
	ret
.Lfunc_end6:
	.size	_ZN39_$LT$main..Bar$u20$as$u20$main..Foo$GT$3foo17he1ea0fced23730ddE, .Lfunc_end6-_ZN39_$LT$main..Bar$u20$as$u20$main..Foo$GT$3foo17he1ea0fced23730ddE
	.cfi_endproc

	.section	".text._ZN39_$LT$main..Baz$u20$as$u20$main..Foo$GT$3foo17hcfedbebfa40e53f1E","ax",@progbits
	.p2align	4, 0x90
	.type	_ZN39_$LT$main..Baz$u20$as$u20$main..Foo$GT$3foo17hcfedbebfa40e53f1E,@function
_ZN39_$LT$main..Baz$u20$as$u20$main..Foo$GT$3foo17hcfedbebfa40e53f1E:
	.cfi_startproc
	sub	rsp, 56
	.cfi_def_cfa_offset 64
	lea	rax, [rip + .L__unnamed_4]
	mov	qword ptr [rsp + 24], rax
	mov	qword ptr [rsp + 32], 1
	mov	qword ptr [rsp + 8], 0
	lea	rax, [rip + .L__unnamed_2]
	mov	qword ptr [rsp + 40], rax
	mov	qword ptr [rsp + 48], 0
	lea	rdi, [rsp + 8]
	call	qword ptr [rip + _ZN3std2io5stdio6_print17he20294a7ec6321a5E@GOTPCREL]
	mov	eax, 1
	add	rsp, 56
	.cfi_def_cfa_offset 8
	ret
.Lfunc_end7:
	.size	_ZN39_$LT$main..Baz$u20$as$u20$main..Foo$GT$3foo17hcfedbebfa40e53f1E, .Lfunc_end7-_ZN39_$LT$main..Baz$u20$as$u20$main..Foo$GT$3foo17hcfedbebfa40e53f1E
	.cfi_endproc

	.section	.text.main,"ax",@progbits
	.globl	main
	.p2align	4, 0x90
	.type	main,@function
main:
	.cfi_startproc
	push	rax
	.cfi_def_cfa_offset 16
	mov	rcx, rsi
	movsxd	rdx, edi
	lea	rax, [rip + _ZN4main4main17h2a68d4d833d7495aE]
	mov	qword ptr [rsp], rax
	lea	rsi, [rip + .L__unnamed_1]
	mov	rdi, rsp
	xor	r8d, r8d
	call	qword ptr [rip + _ZN3std2rt19lang_start_internal17hd16e6ff7bf05a444E@GOTPCREL]
	pop	rcx
	.cfi_def_cfa_offset 8
	ret
.Lfunc_end8:
	.size	main, .Lfunc_end8-main
	.cfi_endproc

	.type	.L__unnamed_1,@object
	.section	.data.rel.ro..L__unnamed_1,"aw",@progbits
	.p2align	3
.L__unnamed_1:
	.quad	_ZN4core3ptr85drop_in_place$LT$std..rt..lang_start$LT$$LP$$RP$$GT$..$u7b$$u7b$closure$u7d$$u7d$$GT$17h004fc24841fc0ef8E
	.asciz	"\b\000\000\000\000\000\000\000\b\000\000\000\000\000\000"
	.quad	_ZN4core3ops8function6FnOnce40call_once$u7b$$u7b$vtable.shim$u7d$$u7d$17hb2c101b91165db55E
	.quad	_ZN3std2rt10lang_start28_$u7b$$u7b$closure$u7d$$u7d$17h07bf5801f126fb76E
	.quad	_ZN3std2rt10lang_start28_$u7b$$u7b$closure$u7d$$u7d$17h07bf5801f126fb76E
	.size	.L__unnamed_1, 48

	.type	.L__unnamed_2,@object
	.section	.rodata..L__unnamed_2,"a",@progbits
	.p2align	3
.L__unnamed_2:
	.size	.L__unnamed_2, 0

	.type	.L__unnamed_5,@object
	.section	.rodata.cst4,"aM",@progbits,4
.L__unnamed_5:
	.ascii	"bar\n"
	.size	.L__unnamed_5, 4

	.type	.L__unnamed_3,@object
	.section	.data.rel.ro..L__unnamed_3,"aw",@progbits
	.p2align	3
.L__unnamed_3:
	.quad	.L__unnamed_5
	.asciz	"\004\000\000\000\000\000\000"
	.size	.L__unnamed_3, 16

	.type	.L__unnamed_6,@object
	.section	.rodata.cst4,"aM",@progbits,4
.L__unnamed_6:
	.ascii	"baz\n"
	.size	.L__unnamed_6, 4

	.type	.L__unnamed_4,@object
	.section	.data.rel.ro..L__unnamed_4,"aw",@progbits
	.p2align	3
.L__unnamed_4:
	.quad	.L__unnamed_6
	.asciz	"\004\000\000\000\000\000\000"
	.size	.L__unnamed_4, 16

	.section	".note.GNU-stack","",@progbits
